target datalayout = "e-m:e-p270:32:32-p271:32:32-p272:64:64-i64:64-i128:128-f80:128-n8:16:32:64-S128"
target triple = "x86_64-pc-linux-gnu"

%struct.ARKodeMemRec = type { ptr, double, ptr, i32, i32, double, double, ptr, i32, double, ptr, i32, i32, ptr, ptr, i32, ptr, ptr, i32, ptr, ptr, ptr, ptr, ptr, ptr, ptr, ptr, ptr, ptr, ptr, ptr, ptr, ptr, ptr, i32, ptr, ptr, i32, ptr, i32, ptr, ptr, ptr, ptr, ptr, ptr, ptr, ptr, ptr, ptr, ptr, ptr, ptr, ptr, ptr, ptr, ptr, ptr, ptr, ptr, ptr, ptr, ptr, ptr, ptr, ptr, i32, ptr, ptr, ptr, ptr, ptr, ptr, ptr, i32, ptr, ptr, ptr, i32, ptr, ptr, ptr, ptr, ptr, ptr, ptr, i32, i32, i32, i32, double, double, double, double, double, double, double, double, double, double, i32, ptr, i64, i32, i32, i32, i32, i64, i64, i32, i64, i64, i64, i64, i64, i64, i64, double, double, double, double, double, i32, double, double, i32, i32, i32, i32, i32, i32, i32, i32, ptr, i32, ptr, ptr, ptr, ptr, i32, i32, i32 }
%struct.ARKodeERKStepMemRec = type { ptr, ptr, i32, i32, i32, ptr, i64, ptr, ptr, i32, double, double, ptr, i32, ptr, ptr }
%struct._generic_N_Vector = type { ptr, ptr, ptr }
%struct._generic_N_Vector_Ops = type { ptr, ptr, ptr, ptr, ptr, ptr, ptr, ptr, ptr, ptr, ptr, ptr, ptr, ptr, ptr, ptr, ptr, ptr, ptr, ptr, ptr, ptr, ptr, ptr, ptr, ptr, ptr, ptr, ptr, ptr, ptr, ptr, ptr, ptr, ptr, ptr, ptr, ptr, ptr, ptr, ptr, ptr, ptr, ptr, ptr, ptr, ptr, ptr, ptr, ptr, ptr, ptr, ptr, ptr, ptr, ptr }

@__func__.ERKStepCreate = private unnamed_addr constant [14 x i8] c"ERKStepCreate\00", align 1
@.str = private unnamed_addr constant [123 x i8] c"generated/home/dtcxzyw/WorkSpace/Projects/compilers/llvm-opt-benchmark/bench/sundials/sundials/src/arkode/arkode_erkstep.c\00", align 1
@.str.1 = private unnamed_addr constant [49 x i8] c"Must specify at least one of fe, fi (both NULL).\00", align 1
@.str.2 = private unnamed_addr constant [19 x i8] c"y0 = NULL illegal.\00", align 1
@.str.3 = private unnamed_addr constant [23 x i8] c"sunctx = NULL illegal.\00", align 1
@.str.4 = private unnamed_addr constant [48 x i8] c"A required vector operation is not implemented.\00", align 1
@.str.5 = private unnamed_addr constant [27 x i8] c"arkode_mem = NULL illegal.\00", align 1
@.str.6 = private unnamed_addr constant [33 x i8] c"Allocation of arkode_mem failed.\00", align 1
@.str.7 = private unnamed_addr constant [37 x i8] c"Error setting default solver options\00", align 1
@.str.8 = private unnamed_addr constant [48 x i8] c"Unable to initialize main ARKODE infrastructure\00", align 1

; Function Attrs: nounwind uwtable
define i32 @erkStep_CheckNVector(ptr noundef %0) #0 {
  %2 = alloca i32, align 4
  %3 = alloca ptr, align 8
  store ptr %0, ptr %3, align 8, !tbaa !9
  %4 = load ptr, ptr %3, align 8, !tbaa !9
  %5 = getelementptr inbounds nuw %struct._generic_N_Vector, ptr %4, i32 0, i32 1
  %6 = load ptr, ptr %5, align 8, !tbaa !55
  %7 = getelementptr inbounds nuw %struct._generic_N_Vector_Ops, ptr %6, i32 0, i32 1
  %8 = load ptr, ptr %7, align 8, !tbaa !58
  %9 = icmp eq ptr %8, null
  br i1 %9, label %45, label %10

10:                                               ; preds = %1
  %11 = load ptr, ptr %3, align 8, !tbaa !9
  %12 = getelementptr inbounds nuw %struct._generic_N_Vector, ptr %11, i32 0, i32 1
  %13 = load ptr, ptr %12, align 8, !tbaa !55
  %14 = getelementptr inbounds nuw %struct._generic_N_Vector_Ops, ptr %13, i32 0, i32 3
  %15 = load ptr, ptr %14, align 8, !tbaa !60
  %16 = icmp eq ptr %15, null
  br i1 %16, label %45, label %17

17:                                               ; preds = %10
  %18 = load ptr, ptr %3, align 8, !tbaa !9
  %19 = getelementptr inbounds nuw %struct._generic_N_Vector, ptr %18, i32 0, i32 1
  %20 = load ptr, ptr %19, align 8, !tbaa !55
  %21 = getelementptr inbounds nuw %struct._generic_N_Vector_Ops, ptr %20, i32 0, i32 11
  %22 = load ptr, ptr %21, align 8, !tbaa !61
  %23 = icmp eq ptr %22, null
  br i1 %23, label %45, label %24

24:                                               ; preds = %17
  %25 = load ptr, ptr %3, align 8, !tbaa !9
  %26 = getelementptr inbounds nuw %struct._generic_N_Vector, ptr %25, i32 0, i32 1
  %27 = load ptr, ptr %26, align 8, !tbaa !55
  %28 = getelementptr inbounds nuw %struct._generic_N_Vector_Ops, ptr %27, i32 0, i32 12
  %29 = load ptr, ptr %28, align 8, !tbaa !62
  %30 = icmp eq ptr %29, null
  br i1 %30, label %45, label %31

31:                                               ; preds = %24
  %32 = load ptr, ptr %3, align 8, !tbaa !9
  %33 = getelementptr inbounds nuw %struct._generic_N_Vector, ptr %32, i32 0, i32 1
  %34 = load ptr, ptr %33, align 8, !tbaa !55
  %35 = getelementptr inbounds nuw %struct._generic_N_Vector_Ops, ptr %34, i32 0, i32 15
  %36 = load ptr, ptr %35, align 8, !tbaa !63
  %37 = icmp eq ptr %36, null
  br i1 %37, label %45, label %38

38:                                               ; preds = %31
  %39 = load ptr, ptr %3, align 8, !tbaa !9
  %40 = getelementptr inbounds nuw %struct._generic_N_Vector, ptr %39, i32 0, i32 1
  %41 = load ptr, ptr %40, align 8, !tbaa !55
  %42 = getelementptr inbounds nuw %struct._generic_N_Vector_Ops, ptr %41, i32 0, i32 21
  %43 = load ptr, ptr %42, align 8, !tbaa !64
  %44 = icmp eq ptr %43, null
  br i1 %44, label %45, label %46

45:                                               ; preds = %38, %31, %24, %17, %10, %1
  store i32 0, ptr %2, align 4
  br label %47

46:                                               ; preds = %38
  store i32 1, ptr %2, align 4
  br label %47

47:                                               ; preds = %46, %45
  %48 = load i32, ptr %2, align 4
  ret i32 %48
}

; Function Attrs: nounwind uwtable
define ptr @ERKStepCreate(ptr noundef %0, double noundef %1, ptr noundef %2, ptr noundef %3) #0 {
  %5 = alloca ptr, align 8
  %6 = alloca ptr, align 8
  %7 = alloca double, align 8
  %8 = alloca ptr, align 8
  %9 = alloca ptr, align 8
  %10 = alloca ptr, align 8
  %11 = alloca ptr, align 8
  %12 = alloca i32, align 4
  %13 = alloca i32, align 4
  %14 = alloca i32, align 4
  store ptr %0, ptr %6, align 8, !tbaa !3
  store double %1, ptr %7, align 8, !tbaa !7
  store ptr %2, ptr %8, align 8, !tbaa !9
  store ptr %3, ptr %9, align 8, !tbaa !11
  call void @llvm.lifetime.start.p0(i64 8, ptr %10) #8
  call void @llvm.lifetime.start.p0(i64 8, ptr %11) #8
  call void @llvm.lifetime.start.p0(i64 4, ptr %12) #8
  call void @llvm.lifetime.start.p0(i64 4, ptr %13) #8
  %15 = load ptr, ptr %6, align 8, !tbaa !3
  %16 = icmp eq ptr %15, null
  br i1 %16, label %17, label %18

17:                                               ; preds = %4
  call void (ptr, i32, i32, ptr, ptr, ptr, ...) @arkProcessError(ptr noundef null, i32 noundef -22, i32 noundef 43, ptr noundef @__func__.ERKStepCreate, ptr noundef @.str, ptr noundef @.str.1)
  store ptr null, ptr %5, align 8
  store i32 1, ptr %14, align 4
  br label %123

18:                                               ; preds = %4
  %19 = load ptr, ptr %8, align 8, !tbaa !9
  %20 = icmp eq ptr %19, null
  br i1 %20, label %21, label %22

21:                                               ; preds = %18
  call void (ptr, i32, i32, ptr, ptr, ptr, ...) @arkProcessError(ptr noundef null, i32 noundef -22, i32 noundef 51, ptr noundef @__func__.ERKStepCreate, ptr noundef @.str, ptr noundef @.str.2)
  store ptr null, ptr %5, align 8
  store i32 1, ptr %14, align 4
  br label %123

22:                                               ; preds = %18
  %23 = load ptr, ptr %9, align 8, !tbaa !11
  %24 = icmp ne ptr %23, null
  br i1 %24, label %26, label %25

25:                                               ; preds = %22
  call void (ptr, i32, i32, ptr, ptr, ptr, ...) @arkProcessError(ptr noundef null, i32 noundef -22, i32 noundef 58, ptr noundef @__func__.ERKStepCreate, ptr noundef @.str, ptr noundef @.str.3)
  store ptr null, ptr %5, align 8
  store i32 1, ptr %14, align 4
  br label %123

26:                                               ; preds = %22
  %27 = load ptr, ptr %8, align 8, !tbaa !9
  %28 = call i32 @erkStep_CheckNVector(ptr noundef %27)
  store i32 %28, ptr %12, align 4, !tbaa !13
  %29 = load i32, ptr %12, align 4, !tbaa !13
  %30 = icmp ne i32 %29, 0
  br i1 %30, label %32, label %31

31:                                               ; preds = %26
  call void (ptr, i32, i32, ptr, ptr, ptr, ...) @arkProcessError(ptr noundef null, i32 noundef -22, i32 noundef 67, ptr noundef @__func__.ERKStepCreate, ptr noundef @.str, ptr noundef @.str.4)
  store ptr null, ptr %5, align 8
  store i32 1, ptr %14, align 4
  br label %123

32:                                               ; preds = %26
  %33 = load ptr, ptr %9, align 8, !tbaa !11
  %34 = call ptr @arkCreate(ptr noundef %33)
  store ptr %34, ptr %10, align 8, !tbaa !15
  %35 = load ptr, ptr %10, align 8, !tbaa !15
  %36 = icmp eq ptr %35, null
  br i1 %36, label %37, label %38

37:                                               ; preds = %32
  call void (ptr, i32, i32, ptr, ptr, ptr, ...) @arkProcessError(ptr noundef null, i32 noundef -21, i32 noundef 76, ptr noundef @__func__.ERKStepCreate, ptr noundef @.str, ptr noundef @.str.5)
  store ptr null, ptr %5, align 8
  store i32 1, ptr %14, align 4
  br label %123

38:                                               ; preds = %32
  store ptr null, ptr %11, align 8, !tbaa !17
  %39 = call noalias ptr @malloc(i64 noundef 120) #9
  store ptr %39, ptr %11, align 8, !tbaa !17
  %40 = load ptr, ptr %11, align 8, !tbaa !17
  %41 = icmp eq ptr %40, null
  br i1 %41, label %42, label %44

42:                                               ; preds = %38
  %43 = load ptr, ptr %10, align 8, !tbaa !15
  call void (ptr, i32, i32, ptr, ptr, ptr, ...) @arkProcessError(ptr noundef %43, i32 noundef -20, i32 noundef 86, ptr noundef @__func__.ERKStepCreate, ptr noundef @.str, ptr noundef @.str.6)
  call void @ARKodeFree(ptr noundef %10)
  store ptr null, ptr %5, align 8
  store i32 1, ptr %14, align 4
  br label %123

44:                                               ; preds = %38
  %45 = load ptr, ptr %11, align 8, !tbaa !17
  call void @llvm.memset.p0.i64(ptr align 8 %45, i8 0, i64 120, i1 false)
  %46 = load ptr, ptr %10, align 8, !tbaa !15
  %47 = getelementptr inbounds nuw %struct.ARKodeMemRec, ptr %46, i32 0, i32 20
  store ptr @erkStep_Init, ptr %47, align 8, !tbaa !19
  %48 = load ptr, ptr %10, align 8, !tbaa !15
  %49 = getelementptr inbounds nuw %struct.ARKodeMemRec, ptr %48, i32 0, i32 21
  store ptr @erkStep_FullRHS, ptr %49, align 8, !tbaa !26
  %50 = load ptr, ptr %10, align 8, !tbaa !15
  %51 = getelementptr inbounds nuw %struct.ARKodeMemRec, ptr %50, i32 0, i32 22
  store ptr @erkStep_TakeStep, ptr %51, align 8, !tbaa !27
  %52 = load ptr, ptr %10, align 8, !tbaa !15
  %53 = getelementptr inbounds nuw %struct.ARKodeMemRec, ptr %52, i32 0, i32 24
  store ptr @erkStep_PrintAllStats, ptr %53, align 8, !tbaa !28
  %54 = load ptr, ptr %10, align 8, !tbaa !15
  %55 = getelementptr inbounds nuw %struct.ARKodeMemRec, ptr %54, i32 0, i32 25
  store ptr @erkStep_WriteParameters, ptr %55, align 8, !tbaa !29
  %56 = load ptr, ptr %10, align 8, !tbaa !15
  %57 = getelementptr inbounds nuw %struct.ARKodeMemRec, ptr %56, i32 0, i32 26
  store ptr @erkStep_Resize, ptr %57, align 8, !tbaa !30
  %58 = load ptr, ptr %10, align 8, !tbaa !15
  %59 = getelementptr inbounds nuw %struct.ARKodeMemRec, ptr %58, i32 0, i32 28
  store ptr @erkStep_Free, ptr %59, align 8, !tbaa !31
  %60 = load ptr, ptr %10, align 8, !tbaa !15
  %61 = getelementptr inbounds nuw %struct.ARKodeMemRec, ptr %60, i32 0, i32 29
  store ptr @erkStep_PrintMem, ptr %61, align 8, !tbaa !32
  %62 = load ptr, ptr %10, align 8, !tbaa !15
  %63 = getelementptr inbounds nuw %struct.ARKodeMemRec, ptr %62, i32 0, i32 30
  store ptr @erkStep_SetDefaults, ptr %63, align 8, !tbaa !33
  %64 = load ptr, ptr %10, align 8, !tbaa !15
  %65 = getelementptr inbounds nuw %struct.ARKodeMemRec, ptr %64, i32 0, i32 38
  store ptr @erkStep_SetRelaxFn, ptr %65, align 8, !tbaa !34
  %66 = load ptr, ptr %10, align 8, !tbaa !15
  %67 = getelementptr inbounds nuw %struct.ARKodeMemRec, ptr %66, i32 0, i32 31
  store ptr @erkStep_SetOrder, ptr %67, align 8, !tbaa !35
  %68 = load ptr, ptr %10, align 8, !tbaa !15
  %69 = getelementptr inbounds nuw %struct.ARKodeMemRec, ptr %68, i32 0, i32 32
  store ptr @erkStep_GetNumRhsEvals, ptr %69, align 8, !tbaa !36
  %70 = load ptr, ptr %10, align 8, !tbaa !15
  %71 = getelementptr inbounds nuw %struct.ARKodeMemRec, ptr %70, i32 0, i32 36
  store ptr @erkStep_GetEstLocalErrors, ptr %71, align 8, !tbaa !37
  %72 = load ptr, ptr %10, align 8, !tbaa !15
  %73 = getelementptr inbounds nuw %struct.ARKodeMemRec, ptr %72, i32 0, i32 71
  store ptr @erkStep_SetInnerForcing, ptr %73, align 8, !tbaa !38
  %74 = load ptr, ptr %10, align 8, !tbaa !15
  %75 = getelementptr inbounds nuw %struct.ARKodeMemRec, ptr %74, i32 0, i32 34
  store i32 1, ptr %75, align 8, !tbaa !39
  %76 = load ptr, ptr %10, align 8, !tbaa !15
  %77 = getelementptr inbounds nuw %struct.ARKodeMemRec, ptr %76, i32 0, i32 37
  store i32 1, ptr %77, align 8, !tbaa !40
  %78 = load ptr, ptr %11, align 8, !tbaa !17
  %79 = load ptr, ptr %10, align 8, !tbaa !15
  %80 = getelementptr inbounds nuw %struct.ARKodeMemRec, ptr %79, i32 0, i32 19
  store ptr %78, ptr %80, align 8, !tbaa !41
  %81 = load ptr, ptr %10, align 8, !tbaa !15
  %82 = call i32 @erkStep_SetDefaults(ptr noundef %81)
  store i32 %82, ptr %13, align 4, !tbaa !13
  %83 = load i32, ptr %13, align 4, !tbaa !13
  %84 = icmp ne i32 %83, 0
  br i1 %84, label %85, label %88

85:                                               ; preds = %44
  %86 = load ptr, ptr %10, align 8, !tbaa !15
  %87 = load i32, ptr %13, align 4, !tbaa !13
  call void (ptr, i32, i32, ptr, ptr, ptr, ...) @arkProcessError(ptr noundef %86, i32 noundef %87, i32 noundef 116, ptr noundef @__func__.ERKStepCreate, ptr noundef @.str, ptr noundef @.str.7)
  call void @ARKodeFree(ptr noundef %10)
  store ptr null, ptr %5, align 8
  store i32 1, ptr %14, align 4
  br label %123

88:                                               ; preds = %44
  %89 = load ptr, ptr %6, align 8, !tbaa !3
  %90 = load ptr, ptr %11, align 8, !tbaa !17
  %91 = getelementptr inbounds nuw %struct.ARKodeERKStepMemRec, ptr %90, i32 0, i32 0
  store ptr %89, ptr %91, align 8, !tbaa !42
  %92 = load ptr, ptr %10, align 8, !tbaa !15
  %93 = getelementptr inbounds nuw %struct.ARKodeMemRec, ptr %92, i32 0, i32 116
  %94 = load i64, ptr %93, align 8, !tbaa !47
  %95 = add nsw i64 %94, 41
  store i64 %95, ptr %93, align 8, !tbaa !47
  %96 = load ptr, ptr %10, align 8, !tbaa !15
  %97 = getelementptr inbounds nuw %struct.ARKodeMemRec, ptr %96, i32 0, i32 115
  %98 = load i64, ptr %97, align 8, !tbaa !48
  %99 = add nsw i64 %98, 10
  store i64 %99, ptr %97, align 8, !tbaa !48
  %100 = load ptr, ptr %11, align 8, !tbaa !17
  %101 = getelementptr inbounds nuw %struct.ARKodeERKStepMemRec, ptr %100, i32 0, i32 6
  store i64 0, ptr %101, align 8, !tbaa !49
  %102 = load ptr, ptr %11, align 8, !tbaa !17
  %103 = getelementptr inbounds nuw %struct.ARKodeERKStepMemRec, ptr %102, i32 0, i32 7
  store ptr null, ptr %103, align 8, !tbaa !50
  %104 = load ptr, ptr %11, align 8, !tbaa !17
  %105 = getelementptr inbounds nuw %struct.ARKodeERKStepMemRec, ptr %104, i32 0, i32 8
  store ptr null, ptr %105, align 8, !tbaa !51
  %106 = load ptr, ptr %11, align 8, !tbaa !17
  %107 = getelementptr inbounds nuw %struct.ARKodeERKStepMemRec, ptr %106, i32 0, i32 9
  store i32 0, ptr %107, align 8, !tbaa !52
  %108 = load ptr, ptr %11, align 8, !tbaa !17
  %109 = getelementptr inbounds nuw %struct.ARKodeERKStepMemRec, ptr %108, i32 0, i32 12
  store ptr null, ptr %109, align 8, !tbaa !53
  %110 = load ptr, ptr %11, align 8, !tbaa !17
  %111 = getelementptr inbounds nuw %struct.ARKodeERKStepMemRec, ptr %110, i32 0, i32 13
  store i32 0, ptr %111, align 8, !tbaa !54
  %112 = load ptr, ptr %10, align 8, !tbaa !15
  %113 = load double, ptr %7, align 8, !tbaa !7
  %114 = load ptr, ptr %8, align 8, !tbaa !9
  %115 = call i32 @arkInit(ptr noundef %112, double noundef %113, ptr noundef %114, i32 noundef 0)
  store i32 %115, ptr %13, align 4, !tbaa !13
  %116 = load i32, ptr %13, align 4, !tbaa !13
  %117 = icmp ne i32 %116, 0
  br i1 %117, label %118, label %121

118:                                              ; preds = %88
  %119 = load ptr, ptr %10, align 8, !tbaa !15
  %120 = load i32, ptr %13, align 4, !tbaa !13
  call void (ptr, i32, i32, ptr, ptr, ptr, ...) @arkProcessError(ptr noundef %119, i32 noundef %120, i32 noundef 149, ptr noundef @__func__.ERKStepCreate, ptr noundef @.str, ptr noundef @.str.8)
  call void @ARKodeFree(ptr noundef %10)
  store ptr null, ptr %5, align 8
  store i32 1, ptr %14, align 4
  br label %123

121:                                              ; preds = %88
  %122 = load ptr, ptr %10, align 8, !tbaa !15
  store ptr %122, ptr %5, align 8
  store i32 1, ptr %14, align 4
  br label %123

123:                                              ; preds = %121, %118, %85, %42, %37, %31, %25, %21, %17
  call void @llvm.lifetime.end.p0(i64 4, ptr %13) #8
  call void @llvm.lifetime.end.p0(i64 4, ptr %12) #8
  call void @llvm.lifetime.end.p0(i64 8, ptr %11) #8
  call void @llvm.lifetime.end.p0(i64 8, ptr %10) #8
  %124 = load ptr, ptr %5, align 8
  ret ptr %124
}