; Function Attrs: nounwind uwtable
define ptr @ERKStepCreate(ptr noundef %0, double noundef %1, ptr noundef %2, ptr noundef %3) local_unnamed_addr #0 {
  %5 = alloca ptr, align 8
  call void @llvm.lifetime.start.p0(i64 8, ptr nonnull %5) #12
  %6 = icmp eq ptr %0, null
  br i1 %6, label %7, label %8

7:                                                ; preds = %4
  tail call void (ptr, i32, i32, ptr, ptr, ptr, ...) @arkProcessError(ptr noundef null, i32 noundef -22, i32 noundef 43, ptr noundef nonnull @__func__.ERKStepCreate, ptr noundef nonnull @.str, ptr noundef nonnull @.str.1) #12
  br label %76

8:                                                ; preds = %4
  %9 = icmp eq ptr %2, null
  br i1 %9, label %10, label %11

10:                                               ; preds = %8
  tail call void (ptr, i32, i32, ptr, ptr, ptr, ...) @arkProcessError(ptr noundef null, i32 noundef -22, i32 noundef 51, ptr noundef nonnull @__func__.ERKStepCreate, ptr noundef nonnull @.str, ptr noundef nonnull @.str.2) #12
  br label %76

11:                                               ; preds = %8
  %.not = icmp eq ptr %3, null
  br i1 %.not, label %12, label %13

12:                                               ; preds = %11
  tail call void (ptr, i32, i32, ptr, ptr, ptr, ...) @arkProcessError(ptr noundef null, i32 noundef -22, i32 noundef 58, ptr noundef nonnull @__func__.ERKStepCreate, ptr noundef nonnull @.str, ptr noundef nonnull @.str.3) #12
  br label %76

13:                                               ; preds = %11
  %14 = getelementptr inbounds nuw i8, ptr %2, i64 8
  %15 = load ptr, ptr %14, align 8, !tbaa !3
  %16 = getelementptr inbounds nuw i8, ptr %15, i64 8
  %17 = load ptr, ptr %16, align 8, !tbaa !10
  %18 = icmp eq ptr %17, null
  br i1 %18, label %erkStep_CheckNVector.exit.thread, label %19

19:                                               ; preds = %13
  %20 = getelementptr inbounds nuw i8, ptr %15, i64 24
  %21 = load ptr, ptr %20, align 8, !tbaa !12
  %22 = icmp eq ptr %21, null
  br i1 %22, label %erkStep_CheckNVector.exit.thread, label %23

23:                                               ; preds = %19
  %24 = getelementptr inbounds nuw i8, ptr %15, i64 88
  %25 = load ptr, ptr %24, align 8, !tbaa !13
  %26 = icmp eq ptr %25, null
  br i1 %26, label %erkStep_CheckNVector.exit.thread, label %27

27:                                               ; preds = %23
  %28 = getelementptr inbounds nuw i8, ptr %15, i64 96
  %29 = load ptr, ptr %28, align 8, !tbaa !14
  %30 = icmp eq ptr %29, null
  br i1 %30, label %erkStep_CheckNVector.exit.thread, label %31

31:                                               ; preds = %27
  %32 = getelementptr inbounds nuw i8, ptr %15, i64 120
  %33 = load ptr, ptr %32, align 8, !tbaa !15
  %34 = icmp eq ptr %33, null
  br i1 %34, label %erkStep_CheckNVector.exit.thread, label %erkStep_CheckNVector.exit

erkStep_CheckNVector.exit:                        ; preds = %31
  %35 = getelementptr inbounds nuw i8, ptr %15, i64 168
  %36 = load ptr, ptr %35, align 8, !tbaa !16
  %.not34 = icmp eq ptr %36, null
  br i1 %.not34, label %erkStep_CheckNVector.exit.thread, label %37

erkStep_CheckNVector.exit.thread:                 ; preds = %13, %19, %23, %27, %31, %erkStep_CheckNVector.exit
  tail call void (ptr, i32, i32, ptr, ptr, ptr, ...) @arkProcessError(ptr noundef null, i32 noundef -22, i32 noundef 67, ptr noundef nonnull @__func__.ERKStepCreate, ptr noundef nonnull @.str, ptr noundef nonnull @.str.4) #12
  br label %76

37:                                               ; preds = %erkStep_CheckNVector.exit
  %38 = tail call ptr @arkCreate(ptr noundef nonnull %3) #12
  store ptr %38, ptr %5, align 8, !tbaa !17
  %39 = icmp eq ptr %38, null
  br i1 %39, label %40, label %41

40:                                               ; preds = %37
  tail call void (ptr, i32, i32, ptr, ptr, ptr, ...) @arkProcessError(ptr noundef null, i32 noundef -21, i32 noundef 76, ptr noundef nonnull @__func__.ERKStepCreate, ptr noundef nonnull @.str, ptr noundef nonnull @.str.5) #12
  br label %76

41:                                               ; preds = %37
  %calloc = tail call dereferenceable_or_null(120) ptr @calloc(i64 1, i64 120)
  %42 = icmp eq ptr %calloc, null
  br i1 %42, label %43, label %44

43:                                               ; preds = %41
  tail call void (ptr, i32, i32, ptr, ptr, ptr, ...) @arkProcessError(ptr noundef nonnull %38, i32 noundef -20, i32 noundef 86, ptr noundef nonnull @__func__.ERKStepCreate, ptr noundef nonnull @.str, ptr noundef nonnull @.str.6) #12
  call void @ARKodeFree(ptr noundef nonnull %5) #12
  br label %76

44:                                               ; preds = %41
  %45 = getelementptr inbounds nuw i8, ptr %38, i64 144
  store ptr @erkStep_Init, ptr %45, align 8, !tbaa !19
  %46 = getelementptr inbounds nuw i8, ptr %38, i64 152
  store ptr @erkStep_FullRHS, ptr %46, align 8, !tbaa !29
  %47 = getelementptr inbounds nuw i8, ptr %38, i64 160
  store ptr @erkStep_TakeStep, ptr %47, align 8, !tbaa !30
  %48 = getelementptr inbounds nuw i8, ptr %38, i64 176
  store ptr @erkStep_PrintAllStats, ptr %48, align 8, !tbaa !31
  %49 = getelementptr inbounds nuw i8, ptr %38, i64 184
  store ptr @erkStep_WriteParameters, ptr %49, align 8, !tbaa !32
  %50 = getelementptr inbounds nuw i8, ptr %38, i64 192
  store ptr @erkStep_Resize, ptr %50, align 8, !tbaa !33
  %51 = getelementptr inbounds nuw i8, ptr %38, i64 208
  store ptr @erkStep_Free, ptr %51, align 8, !tbaa !34
  %52 = getelementptr inbounds nuw i8, ptr %38, i64 216
  store ptr @erkStep_PrintMem, ptr %52, align 8, !tbaa !35
  %53 = getelementptr inbounds nuw i8, ptr %38, i64 224
  store ptr @erkStep_SetDefaults, ptr %53, align 8, !tbaa !36
  %54 = getelementptr inbounds nuw i8, ptr %38, i64 288
  store ptr @erkStep_SetRelaxFn, ptr %54, align 8, !tbaa !37
  %55 = getelementptr inbounds nuw i8, ptr %38, i64 232
  store ptr @erkStep_SetOrder, ptr %55, align 8, !tbaa !38
  %56 = getelementptr inbounds nuw i8, ptr %38, i64 240
  store ptr @erkStep_GetNumRhsEvals, ptr %56, align 8, !tbaa !39
  %57 = getelementptr inbounds nuw i8, ptr %38, i64 272
  store ptr @erkStep_GetEstLocalErrors, ptr %57, align 8, !tbaa !40
  %58 = getelementptr inbounds nuw i8, ptr %38, i64 552
  store ptr @erkStep_SetInnerForcing, ptr %58, align 8, !tbaa !41
  %59 = getelementptr inbounds nuw i8, ptr %38, i64 256
  store i32 1, ptr %59, align 8, !tbaa !42
  %60 = getelementptr inbounds nuw i8, ptr %38, i64 280
  store i32 1, ptr %60, align 8, !tbaa !43
  %61 = getelementptr inbounds nuw i8, ptr %38, i64 136
  store ptr %calloc, ptr %61, align 8, !tbaa !44
  %62 = tail call i32 @erkStep_SetDefaults(ptr noundef nonnull %38) #12
  %.not30 = icmp eq i32 %62, 0
  br i1 %.not30, label %64, label %63

63:                                               ; preds = %44
  tail call void (ptr, i32, i32, ptr, ptr, ptr, ...) @arkProcessError(ptr noundef nonnull %38, i32 noundef %62, i32 noundef 116, ptr noundef nonnull @__func__.ERKStepCreate, ptr noundef nonnull @.str, ptr noundef nonnull @.str.7) #12
  call void @ARKodeFree(ptr noundef nonnull %5) #12
  br label %76

64:                                               ; preds = %44
  store ptr %0, ptr %calloc, align 8, !tbaa !45
  %65 = getelementptr inbounds nuw i8, ptr %38, i64 880
  %66 = load i64, ptr %65, align 8, !tbaa !50
  %67 = add nsw i64 %66, 41
  store i64 %67, ptr %65, align 8, !tbaa !50
  %68 = getelementptr inbounds nuw i8, ptr %38, i64 872
  %69 = load i64, ptr %68, align 8, !tbaa !51
  %70 = add nsw i64 %69, 10
  store i64 %70, ptr %68, align 8, !tbaa !51
  %71 = getelementptr inbounds nuw i8, ptr %calloc, i64 40
  %72 = getelementptr inbounds nuw i8, ptr %calloc, i64 88
  store ptr null, ptr %72, align 8, !tbaa !52
  %73 = getelementptr inbounds nuw i8, ptr %calloc, i64 96
  store i32 0, ptr %73, align 8, !tbaa !53
  tail call void @llvm.memset.p0.i64(ptr noundef nonnull align 8 dereferenceable(28) %71, i8 0, i64 28, i1 false)
  %74 = tail call i32 @arkInit(ptr noundef nonnull %38, double noundef %1, ptr noundef nonnull %2, i32 noundef 0) #12
  %.not31 = icmp eq i32 %74, 0
  br i1 %.not31, label %76, label %75

75:                                               ; preds = %64
  tail call void (ptr, i32, i32, ptr, ptr, ptr, ...) @arkProcessError(ptr noundef nonnull %38, i32 noundef %74, i32 noundef 149, ptr noundef nonnull @__func__.ERKStepCreate, ptr noundef nonnull @.str, ptr noundef nonnull @.str.8) #12
  call void @ARKodeFree(ptr noundef nonnull %5) #12
  br label %76

76:                                               ; preds = %64, %75, %63, %43, %40, %erkStep_CheckNVector.exit.thread, %12, %10, %7
  %.0 = phi ptr [ null, %7 ], [ null, %10 ], [ null, %40 ], [ null, %43 ], [ null, %63 ], [ null, %75 ], [ null, %erkStep_CheckNVector.exit.thread ], [ null, %12 ], [ %38, %64 ]
  call void @llvm.lifetime.end.p0(i64 8, ptr nonnull %5) #12
  ret ptr %.0
}